target datalayout = "e-m:e-p270:32:32-p271:32:32-p272:64:64-i64:64-i128:128-f80:128-n8:16:32:64-S128"
target triple = "x86_64-pc-linux-gnu"

@.str.4 = private unnamed_addr constant [2 x i8] c"\0A\00", align 1
@.str.5 = private unnamed_addr constant [35 x i8] c"    peepopt [options] [selection]\0A\00", align 1
@.str.6 = private unnamed_addr constant [78 x i8] c"This pass applies a collection of peephole optimizers to the current design.\0A\00", align 1
@.str.7 = private unnamed_addr constant [51 x i8] c"This pass employs the following rules by default:\0A\00", align 1
@.str.8 = private unnamed_addr constant [38 x i8] c"   * muldiv - Replace (A*B)/B with A\0A\00", align 1
@.str.9 = private unnamed_addr constant [78 x i8] c"   * shiftmul - Replace A>>(B*C) with A'>>(B<<K) where C and K are constants\0A\00", align 1
@.str.10 = private unnamed_addr constant [77 x i8] c"                and A' is derived from A by appropriately inserting padding\0A\00", align 1
@.str.11 = private unnamed_addr constant [50 x i8] c"                into the signal. (right variant)\0A\00", align 1
@.str.12 = private unnamed_addr constant [77 x i8] c"                Analogously, replace A<<(B*C) with appropriate selection of\0A\00", align 1
@.str.13 = private unnamed_addr constant [60 x i8] c"                output bits from A<<(B<<K). (left variant)\0A\00", align 1
@.str.14 = private unnamed_addr constant [76 x i8] c"   * shiftadd - Replace A>>(B+D) with (A'>>D)>>(B) where D is constant and\0A\00", align 1
@.str.15 = private unnamed_addr constant [79 x i8] c"                A' is derived from A by padding or cutting inaccessible bits.\0A\00", align 1
@.str.16 = private unnamed_addr constant [79 x i8] c"                Scratchpad: 'peepopt.shiftadd.max_data_multiple' (default: 2)\0A\00", align 1
@.str.17 = private unnamed_addr constant [74 x i8] c"                limits the amount of padding to a multiple of the data, \0A\00", align 1
@.str.18 = private unnamed_addr constant [78 x i8] c"                to avoid high resource usage from large temporary MUX trees.\0A\00", align 1
@.str.19 = private unnamed_addr constant [68 x i8] c"If -formalclk is specified it instead employs the following rules:\0A\00", align 1
@.str.20 = private unnamed_addr constant [79 x i8] c"   * clockgateff - Replace latch based clock gating patterns with a flip-flop\0A\00", align 1
@.str.21 = private unnamed_addr constant [74 x i8] c"                   based pattern to prevent combinational paths from the\0A\00", align 1
@.str.22 = private unnamed_addr constant [74 x i8] c"                   output to the enable input after running clk2fflogic.\0A\00", align 1

; Function Attrs: mustprogress uwtable
define internal void @_ZN12_GLOBAL__N_111PeepoptPass4helpEv(ptr noundef nonnull align 8 dereferenceable(104) %0) unnamed_addr #4 align 2 {
  %2 = alloca ptr, align 8
  store ptr %0, ptr %2, align 8, !tbaa !6
  call void (ptr, ...) @_ZN5Yosys3logEPKcz(ptr noundef @.str.4)
  call void (ptr, ...) @_ZN5Yosys3logEPKcz(ptr noundef @.str.5)
  call void (ptr, ...) @_ZN5Yosys3logEPKcz(ptr noundef @.str.4)
  call void (ptr, ...) @_ZN5Yosys3logEPKcz(ptr noundef @.str.6)
  call void (ptr, ...) @_ZN5Yosys3logEPKcz(ptr noundef @.str.4)
  call void (ptr, ...) @_ZN5Yosys3logEPKcz(ptr noundef @.str.7)
  call void (ptr, ...) @_ZN5Yosys3logEPKcz(ptr noundef @.str.4)
  call void (ptr, ...) @_ZN5Yosys3logEPKcz(ptr noundef @.str.8)
  call void (ptr, ...) @_ZN5Yosys3logEPKcz(ptr noundef @.str.4)
  call void (ptr, ...) @_ZN5Yosys3logEPKcz(ptr noundef @.str.9)
  call void (ptr, ...) @_ZN5Yosys3logEPKcz(ptr noundef @.str.10)
  call void (ptr, ...) @_ZN5Yosys3logEPKcz(ptr noundef @.str.11)
  call void (ptr, ...) @_ZN5Yosys3logEPKcz(ptr noundef @.str.4)
  call void (ptr, ...) @_ZN5Yosys3logEPKcz(ptr noundef @.str.12)
  call void (ptr, ...) @_ZN5Yosys3logEPKcz(ptr noundef @.str.13)
  call void (ptr, ...) @_ZN5Yosys3logEPKcz(ptr noundef @.str.4)
  call void (ptr, ...) @_ZN5Yosys3logEPKcz(ptr noundef @.str.14)
  call void (ptr, ...) @_ZN5Yosys3logEPKcz(ptr noundef @.str.15)
  call void (ptr, ...) @_ZN5Yosys3logEPKcz(ptr noundef @.str.16)
  call void (ptr, ...) @_ZN5Yosys3logEPKcz(ptr noundef @.str.17)
  call void (ptr, ...) @_ZN5Yosys3logEPKcz(ptr noundef @.str.18)
  call void (ptr, ...) @_ZN5Yosys3logEPKcz(ptr noundef @.str.4)
  call void (ptr, ...) @_ZN5Yosys3logEPKcz(ptr noundef @.str.19)
  call void (ptr, ...) @_ZN5Yosys3logEPKcz(ptr noundef @.str.4)
  call void (ptr, ...) @_ZN5Yosys3logEPKcz(ptr noundef @.str.20)
  call void (ptr, ...) @_ZN5Yosys3logEPKcz(ptr noundef @.str.21)
  call void (ptr, ...) @_ZN5Yosys3logEPKcz(ptr noundef @.str.22)
  call void (ptr, ...) @_ZN5Yosys3logEPKcz(ptr noundef @.str.4)
  ret void
}